; Function Attrs: mustprogress uwtable
define void @_ZNK8QuantLib14InflationIndex14fixingCalendarEv(ptr dead_on_unwind noalias nocapture writable writeonly sret(%"class.QuantLib::Calendar") align 8 %agg.result, ptr nocapture nonnull readnone align 8 %this) unnamed_addr #6 align 2 personality ptr @__gxx_personality_v0 {
entry:
  %0 = load atomic i8, ptr @_ZGVZNK8QuantLib14InflationIndex14fixingCalendarEvE1c acquire, align 8
  %guard.uninitialized = icmp eq i8 %0, 0
  br i1 %guard.uninitialized, label %init.check, label %init.end, !prof !7

init.check:                                       ; preds = %entry
  %1 = tail call i32 @__cxa_guard_acquire(ptr nonnull @_ZGVZNK8QuantLib14InflationIndex14fixingCalendarEvE1c) #27
  %tobool.not = icmp eq i32 %1, 0
  br i1 %tobool.not, label %init.end, label %init

init:                                             ; preds = %init.check
  invoke void @_ZN8QuantLib12NullCalendarC2Ev(ptr noundef nonnull align 8 dereferenceable(16) @_ZZNK8QuantLib14InflationIndex14fixingCalendarEvE1c)
          to label %invoke.cont unwind label %lpad

invoke.cont:                                      ; preds = %init
  %2 = tail call i32 @__cxa_atexit(ptr nonnull @_ZN8QuantLib8CalendarD2Ev, ptr nonnull @_ZZNK8QuantLib14InflationIndex14fixingCalendarEvE1c, ptr nonnull @__dso_handle) #27
  tail call void @__cxa_guard_release(ptr nonnull @_ZGVZNK8QuantLib14InflationIndex14fixingCalendarEvE1c) #27
  br label %init.end

init.end:                                         ; preds = %invoke.cont, %init.check, %entry
  %3 = load ptr, ptr @_ZZNK8QuantLib14InflationIndex14fixingCalendarEvE1c, align 8, !tbaa !84
  store ptr %3, ptr %agg.result, align 8, !tbaa !84
  %pn.i.i = getelementptr inbounds nuw i8, ptr %agg.result, i64 8
  %4 = load ptr, ptr getelementptr inbounds nuw (i8, ptr @_ZZNK8QuantLib14InflationIndex14fixingCalendarEvE1c, i64 8), align 8, !tbaa !37
  store ptr %4, ptr %pn.i.i, align 8, !tbaa !37
  %cmp.not.i.i.i = icmp eq ptr %4, null
  br i1 %cmp.not.i.i.i, label %_ZN8QuantLib8CalendarC2ERKS0_.exit, label %if.then.i.i.i

if.then.i.i.i:                                    ; preds = %init.end
  %use_count_.i.i.i.i = getelementptr inbounds nuw i8, ptr %4, i64 8
  %5 = atomicrmw add ptr %use_count_.i.i.i.i, i32 1 monotonic, align 4
  br label %_ZN8QuantLib8CalendarC2ERKS0_.exit

_ZN8QuantLib8CalendarC2ERKS0_.exit:               ; preds = %init.end, %if.then.i.i.i
  ret void

lpad:                                             ; preds = %init
  %6 = landingpad { ptr, i32 }
          cleanup
  tail call void @__cxa_guard_abort(ptr nonnull @_ZGVZNK8QuantLib14InflationIndex14fixingCalendarEvE1c) #27
  resume { ptr, i32 } %6
}